; ModuleID = '14/874.c'
source_filename = "14/874.c"
target datalayout = "e-m:e-p270:32:32-p271:32:32-p272:64:64-i64:64-f80:128-n8:16:32:64-S128"
target triple = "x86_64-pc-linux-gnu"

%struct.student = type { i32, i32, i32 }

@.str = private unnamed_addr constant [3 x i8] c"%d\00", align 1
@.str.1 = private unnamed_addr constant [7 x i8] c"%d%d%d\00", align 1
@student = common dso_local global [100000 x %struct.student] zeroinitializer, align 16
@.str.2 = private unnamed_addr constant [18 x i8] c"%d %d\0A%d %d\0A%d %d\00", align 1

; Function Attrs: noinline nounwind uwtable
define dso_local void @main() #0 {
  %1 = alloca i32, align 4
  %2 = alloca i32, align 4
  %3 = alloca i32, align 4
  %4 = alloca [100000 x i32], align 16
  %5 = alloca i32, align 4
  %6 = alloca i32, align 4
  %7 = alloca i32, align 4
  %8 = alloca i32, align 4
  %9 = alloca i32, align 4
  %10 = alloca i32, align 4
  %11 = bitcast [100000 x i32]* %4 to i8*
  call void @llvm.memset.p0i8.i64(i8* align 16 %11, i8 0, i64 400000, i1 false)
  store i32 0, i32* %5, align 4
  store i32 0, i32* %6, align 4
  store i32 0, i32* %7, align 4
  %12 = call i32 (i8*, ...) @__isoc99_scanf(i8* getelementptr inbounds ([3 x i8], [3 x i8]* @.str, i64 0, i64 0), i32* %1)
  store i32 0, i32* %2, align 4
  br label %13

13:                                               ; preds = %31, %0
  %14 = load i32, i32* %2, align 4
  %15 = load i32, i32* %1, align 4
  %16 = icmp slt i32 %14, %15
  br i1 %16, label %17, label %34

17:                                               ; preds = %13
  %18 = load i32, i32* %2, align 4
  %19 = sext i32 %18 to i64
  %20 = getelementptr inbounds [100000 x %struct.student], [100000 x %struct.student]* @student, i64 0, i64 %19
  %21 = getelementptr inbounds %struct.student, %struct.student* %20, i32 0, i32 0
  %22 = load i32, i32* %2, align 4
  %23 = sext i32 %22 to i64
  %24 = getelementptr inbounds [100000 x %struct.student], [100000 x %struct.student]* @student, i64 0, i64 %23
  %25 = getelementptr inbounds %struct.student, %struct.student* %24, i32 0, i32 1
  %26 = load i32, i32* %2, align 4
  %27 = sext i32 %26 to i64
  %28 = getelementptr inbounds [100000 x %struct.student], [100000 x %struct.student]* @student, i64 0, i64 %27
  %29 = getelementptr inbounds %struct.student, %struct.student* %28, i32 0, i32 2
  %30 = call i32 (i8*, ...) @__isoc99_scanf(i8* getelementptr inbounds ([7 x i8], [7 x i8]* @.str.1, i64 0, i64 0), i32* %21, i32* %25, i32* %29)
  br label %31

31:                                               ; preds = %17
  %32 = load i32, i32* %2, align 4
  %33 = add nsw i32 %32, 1
  store i32 %33, i32* %2, align 4
  br label %13

34:                                               ; preds = %13
  store i32 0, i32* %8, align 4
  store i32 0, i32* %9, align 4
  store i32 0, i32* %10, align 4
  store i32 0, i32* %3, align 4
  br label %35

35:                                               ; preds = %263, %34
  %36 = load i32, i32* %3, align 4
  %37 = load i32, i32* %1, align 4
  %38 = icmp slt i32 %36, %37
  br i1 %38, label %39, label %266

39:                                               ; preds = %35
  %40 = load i32, i32* %8, align 4
  %41 = load i32, i32* %3, align 4
  %42 = sext i32 %41 to i64
  %43 = getelementptr inbounds [100000 x %struct.student], [100000 x %struct.student]* @student, i64 0, i64 %42
  %44 = getelementptr inbounds %struct.student, %struct.student* %43, i32 0, i32 1
  %45 = load i32, i32* %44, align 4
  %46 = load i32, i32* %3, align 4
  %47 = sext i32 %46 to i64
  %48 = getelementptr inbounds [100000 x %struct.student], [100000 x %struct.student]* @student, i64 0, i64 %47
  %49 = getelementptr inbounds %struct.student, %struct.student* %48, i32 0, i32 2
  %50 = load i32, i32* %49, align 4
  %51 = add nsw i32 %45, %50
  %52 = icmp slt i32 %40, %51
  br i1 %52, label %53, label %74

53:                                               ; preds = %39
  %54 = load i32, i32* %9, align 4
  store i32 %54, i32* %10, align 4
  %55 = load i32, i32* %6, align 4
  store i32 %55, i32* %7, align 4
  %56 = load i32, i32* %8, align 4
  store i32 %56, i32* %9, align 4
  %57 = load i32, i32* %5, align 4
  store i32 %57, i32* %6, align 4
  %58 = load i32, i32* %3, align 4
  %59 = sext i32 %58 to i64
  %60 = getelementptr inbounds [100000 x %struct.student], [100000 x %struct.student]* @student, i64 0, i64 %59
  %61 = getelementptr inbounds %struct.student, %struct.student* %60, i32 0, i32 1
  %62 = load i32, i32* %61, align 4
  %63 = load i32, i32* %3, align 4
  %64 = sext i32 %63 to i64
  %65 = getelementptr inbounds [100000 x %struct.student], [100000 x %struct.student]* @student, i64 0, i64 %64
  %66 = getelementptr inbounds %struct.student, %struct.student* %65, i32 0, i32 2
  %67 = load i32, i32* %66, align 4
  %68 = add nsw i32 %62, %67
  store i32 %68, i32* %8, align 4
  %69 = load i32, i32* %3, align 4
  %70 = sext i32 %69 to i64
  %71 = getelementptr inbounds [100000 x %struct.student], [100000 x %struct.student]* @student, i64 0, i64 %70
  %72 = getelementptr inbounds %struct.student, %struct.student* %71, i32 0, i32 0
  %73 = load i32, i32* %72, align 4
  store i32 %73, i32* %5, align 4
  br label %262

74:                                               ; preds = %39
  %75 = load i32, i32* %8, align 4
  %76 = load i32, i32* %3, align 4
  %77 = sext i32 %76 to i64
  %78 = getelementptr inbounds [100000 x %struct.student], [100000 x %struct.student]* @student, i64 0, i64 %77
  %79 = getelementptr inbounds %struct.student, %struct.student* %78, i32 0, i32 1
  %80 = load i32, i32* %79, align 4
  %81 = load i32, i32* %3, align 4
  %82 = sext i32 %81 to i64
  %83 = getelementptr inbounds [100000 x %struct.student], [100000 x %struct.student]* @student, i64 0, i64 %82
  %84 = getelementptr inbounds %struct.student, %struct.student* %83, i32 0, i32 2
  %85 = load i32, i32* %84, align 4
  %86 = add nsw i32 %80, %85
  %87 = icmp sgt i32 %75, %86
  br i1 %87, label %88, label %121

88:                                               ; preds = %74
  %89 = load i32, i32* %9, align 4
  %90 = load i32, i32* %3, align 4
  %91 = sext i32 %90 to i64
  %92 = getelementptr inbounds [100000 x %struct.student], [100000 x %struct.student]* @student, i64 0, i64 %91
  %93 = getelementptr inbounds %struct.student, %struct.student* %92, i32 0, i32 1
  %94 = load i32, i32* %93, align 4
  %95 = load i32, i32* %3, align 4
  %96 = sext i32 %95 to i64
  %97 = getelementptr inbounds [100000 x %struct.student], [100000 x %struct.student]* @student, i64 0, i64 %96
  %98 = getelementptr inbounds %struct.student, %struct.student* %97, i32 0, i32 2
  %99 = load i32, i32* %98, align 4
  %100 = add nsw i32 %94, %99
  %101 = icmp slt i32 %89, %100
  br i1 %101, label %102, label %121

102:                                              ; preds = %88
  %103 = load i32, i32* %9, align 4
  store i32 %103, i32* %10, align 4
  %104 = load i32, i32* %6, align 4
  store i32 %104, i32* %7, align 4
  %105 = load i32, i32* %3, align 4
  %106 = sext i32 %105 to i64
  %107 = getelementptr inbounds [100000 x %struct.student], [100000 x %struct.student]* @student, i64 0, i64 %106
  %108 = getelementptr inbounds %struct.student, %struct.student* %107, i32 0, i32 1
  %109 = load i32, i32* %108, align 4
  %110 = load i32, i32* %3, align 4
  %111 = sext i32 %110 to i64
  %112 = getelementptr inbounds [100000 x %struct.student], [100000 x %struct.student]* @student, i64 0, i64 %111
  %113 = getelementptr inbounds %struct.student, %struct.student* %112, i32 0, i32 2
  %114 = load i32, i32* %113, align 4
  %115 = add nsw i32 %109, %114
  store i32 %115, i32* %9, align 4
  %116 = load i32, i32* %3, align 4
  %117 = sext i32 %116 to i64
  %118 = getelementptr inbounds [100000 x %struct.student], [100000 x %struct.student]* @student, i64 0, i64 %117
  %119 = getelementptr inbounds %struct.student, %struct.student* %118, i32 0, i32 0
  %120 = load i32, i32* %119, align 4
  store i32 %120, i32* %6, align 4
  br label %261

121:                                              ; preds = %88, %74
  %122 = load i32, i32* %9, align 4
  %123 = load i32, i32* %3, align 4
  %124 = sext i32 %123 to i64
  %125 = getelementptr inbounds [100000 x %struct.student], [100000 x %struct.student]* @student, i64 0, i64 %124
  %126 = getelementptr inbounds %struct.student, %struct.student* %125, i32 0, i32 1
  %127 = load i32, i32* %126, align 4
  %128 = load i32, i32* %3, align 4
  %129 = sext i32 %128 to i64
  %130 = getelementptr inbounds [100000 x %struct.student], [100000 x %struct.student]* @student, i64 0, i64 %129
  %131 = getelementptr inbounds %struct.student, %struct.student* %130, i32 0, i32 2
  %132 = load i32, i32* %131, align 4
  %133 = add nsw i32 %127, %132
  %134 = icmp sgt i32 %122, %133
  br i1 %134, label %135, label %166

135:                                              ; preds = %121
  %136 = load i32, i32* %10, align 4
  %137 = load i32, i32* %3, align 4
  %138 = sext i32 %137 to i64
  %139 = getelementptr inbounds [100000 x %struct.student], [100000 x %struct.student]* @student, i64 0, i64 %138
  %140 = getelementptr inbounds %struct.student, %struct.student* %139, i32 0, i32 1
  %141 = load i32, i32* %140, align 4
  %142 = load i32, i32* %3, align 4
  %143 = sext i32 %142 to i64
  %144 = getelementptr inbounds [100000 x %struct.student], [100000 x %struct.student]* @student, i64 0, i64 %143
  %145 = getelementptr inbounds %struct.student, %struct.student* %144, i32 0, i32 2
  %146 = load i32, i32* %145, align 4
  %147 = add nsw i32 %141, %146
  %148 = icmp slt i32 %136, %147
  br i1 %148, label %149, label %166

149:                                              ; preds = %135
  %150 = load i32, i32* %3, align 4
  %151 = sext i32 %150 to i64
  %152 = getelementptr inbounds [100000 x %struct.student], [100000 x %struct.student]* @student, i64 0, i64 %151
  %153 = getelementptr inbounds %struct.student, %struct.student* %152, i32 0, i32 1
  %154 = load i32, i32* %153, align 4
  %155 = load i32, i32* %3, align 4
  %156 = sext i32 %155 to i64
  %157 = getelementptr inbounds [100000 x %struct.student], [100000 x %struct.student]* @student, i64 0, i64 %156
  %158 = getelementptr inbounds %struct.student, %struct.student* %157, i32 0, i32 2
  %159 = load i32, i32* %158, align 4
  %160 = add nsw i32 %154, %159
  store i32 %160, i32* %10, align 4
  %161 = load i32, i32* %3, align 4
  %162 = sext i32 %161 to i64
  %163 = getelementptr inbounds [100000 x %struct.student], [100000 x %struct.student]* @student, i64 0, i64 %162
  %164 = getelementptr inbounds %struct.student, %struct.student* %163, i32 0, i32 0
  %165 = load i32, i32* %164, align 4
  store i32 %165, i32* %7, align 4
  br label %260

166:                                              ; preds = %135, %121
  %167 = load i32, i32* %8, align 4
  %168 = load i32, i32* %3, align 4
  %169 = sext i32 %168 to i64
  %170 = getelementptr inbounds [100000 x %struct.student], [100000 x %struct.student]* @student, i64 0, i64 %169
  %171 = getelementptr inbounds %struct.student, %struct.student* %170, i32 0, i32 1
  %172 = load i32, i32* %171, align 4
  %173 = load i32, i32* %3, align 4
  %174 = sext i32 %173 to i64
  %175 = getelementptr inbounds [100000 x %struct.student], [100000 x %struct.student]* @student, i64 0, i64 %174
  %176 = getelementptr inbounds %struct.student, %struct.student* %175, i32 0, i32 2
  %177 = load i32, i32* %176, align 4
  %178 = add nsw i32 %172, %177
  %179 = icmp eq i32 %167, %178
  br i1 %179, label %180, label %213

180:                                              ; preds = %166
  %181 = load i32, i32* %9, align 4
  %182 = load i32, i32* %3, align 4
  %183 = sext i32 %182 to i64
  %184 = getelementptr inbounds [100000 x %struct.student], [100000 x %struct.student]* @student, i64 0, i64 %183
  %185 = getelementptr inbounds %struct.student, %struct.student* %184, i32 0, i32 1
  %186 = load i32, i32* %185, align 4
  %187 = load i32, i32* %3, align 4
  %188 = sext i32 %187 to i64
  %189 = getelementptr inbounds [100000 x %struct.student], [100000 x %struct.student]* @student, i64 0, i64 %188
  %190 = getelementptr inbounds %struct.student, %struct.student* %189, i32 0, i32 2
  %191 = load i32, i32* %190, align 4
  %192 = add nsw i32 %186, %191
  %193 = icmp slt i32 %181, %192
  br i1 %193, label %194, label %213

194:                                              ; preds = %180
  %195 = load i32, i32* %9, align 4
  store i32 %195, i32* %10, align 4
  %196 = load i32, i32* %6, align 4
  store i32 %196, i32* %7, align 4
  %197 = load i32, i32* %3, align 4
  %198 = sext i32 %197 to i64
  %199 = getelementptr inbounds [100000 x %struct.student], [100000 x %struct.student]* @student, i64 0, i64 %198
  %200 = getelementptr inbounds %struct.student, %struct.student* %199, i32 0, i32 1
  %201 = load i32, i32* %200, align 4
  %202 = load i32, i32* %3, align 4
  %203 = sext i32 %202 to i64
  %204 = getelementptr inbounds [100000 x %struct.student], [100000 x %struct.student]* @student, i64 0, i64 %203
  %205 = getelementptr inbounds %struct.student, %struct.student* %204, i32 0, i32 2
  %206 = load i32, i32* %205, align 4
  %207 = add nsw i32 %201, %206
  store i32 %207, i32* %9, align 4
  %208 = load i32, i32* %3, align 4
  %209 = sext i32 %208 to i64
  %210 = getelementptr inbounds [100000 x %struct.student], [100000 x %struct.student]* @student, i64 0, i64 %209
  %211 = getelementptr inbounds %struct.student, %struct.student* %210, i32 0, i32 0
  %212 = load i32, i32* %211, align 4
  store i32 %212, i32* %6, align 4
  br label %259

213:                                              ; preds = %180, %166
  %214 = load i32, i32* %9, align 4
  %215 = load i32, i32* %3, align 4
  %216 = sext i32 %215 to i64
  %217 = getelementptr inbounds [100000 x %struct.student], [100000 x %struct.student]* @student, i64 0, i64 %216
  %218 = getelementptr inbounds %struct.student, %struct.student* %217, i32 0, i32 1
  %219 = load i32, i32* %218, align 4
  %220 = load i32, i32* %3, align 4
  %221 = sext i32 %220 to i64
  %222 = getelementptr inbounds [100000 x %struct.student], [100000 x %struct.student]* @student, i64 0, i64 %221
  %223 = getelementptr inbounds %struct.student, %struct.student* %222, i32 0, i32 2
  %224 = load i32, i32* %223, align 4
  %225 = add nsw i32 %219, %224
  %226 = icmp eq i32 %214, %225
  br i1 %226, label %227, label %258

227:                                              ; preds = %213
  %228 = load i32, i32* %10, align 4
  %229 = load i32, i32* %3, align 4
  %230 = sext i32 %229 to i64
  %231 = getelementptr inbounds [100000 x %struct.student], [100000 x %struct.student]* @student, i64 0, i64 %230
  %232 = getelementptr inbounds %struct.student, %struct.student* %231, i32 0, i32 1
  %233 = load i32, i32* %232, align 4
  %234 = load i32, i32* %3, align 4
  %235 = sext i32 %234 to i64
  %236 = getelementptr inbounds [100000 x %struct.student], [100000 x %struct.student]* @student, i64 0, i64 %235
  %237 = getelementptr inbounds %struct.student, %struct.student* %236, i32 0, i32 2
  %238 = load i32, i32* %237, align 4
  %239 = add nsw i32 %233, %238
  %240 = icmp slt i32 %228, %239
  br i1 %240, label %241, label %258

241:                                              ; preds = %227
  %242 = load i32, i32* %3, align 4
  %243 = sext i32 %242 to i64
  %244 = getelementptr inbounds [100000 x %struct.student], [100000 x %struct.student]* @student, i64 0, i64 %243
  %245 = getelementptr inbounds %struct.student, %struct.student* %244, i32 0, i32 1
  %246 = load i32, i32* %245, align 4
  %247 = load i32, i32* %3, align 4
  %248 = sext i32 %247 to i64
  %249 = getelementptr inbounds [100000 x %struct.student], [100000 x %struct.student]* @student, i64 0, i64 %248
  %250 = getelementptr inbounds %struct.student, %struct.student* %249, i32 0, i32 2
  %251 = load i32, i32* %250, align 4
  %252 = add nsw i32 %246, %251
  store i32 %252, i32* %10, align 4
  %253 = load i32, i32* %3, align 4
  %254 = sext i32 %253 to i64
  %255 = getelementptr inbounds [100000 x %struct.student], [100000 x %struct.student]* @student, i64 0, i64 %254
  %256 = getelementptr inbounds %struct.student, %struct.student* %255, i32 0, i32 0
  %257 = load i32, i32* %256, align 4
  store i32 %257, i32* %7, align 4
  br label %258

258:                                              ; preds = %241, %227, %213
  br label %259

259:                                              ; preds = %258, %194
  br label %260

260:                                              ; preds = %259, %149
  br label %261

261:                                              ; preds = %260, %102
  br label %262

262:                                              ; preds = %261, %53
  br label %263

263:                                              ; preds = %262
  %264 = load i32, i32* %3, align 4
  %265 = add nsw i32 %264, 1
  store i32 %265, i32* %3, align 4
  br label %35

266:                                              ; preds = %35
  %267 = load i32, i32* %5, align 4
  %268 = load i32, i32* %8, align 4
  %269 = load i32, i32* %6, align 4
  %270 = load i32, i32* %9, align 4
  %271 = load i32, i32* %7, align 4
  %272 = load i32, i32* %10, align 4
  %273 = call i32 (i8*, ...) @printf(i8* getelementptr inbounds ([18 x i8], [18 x i8]* @.str.2, i64 0, i64 0), i32 %267, i32 %268, i32 %269, i32 %270, i32 %271, i32 %272)
  ret void
}

; Function Attrs: argmemonly nounwind willreturn
declare void @llvm.memset.p0i8.i64(i8* nocapture writeonly, i8, i64, i1 immarg) #1

declare dso_local i32 @__isoc99_scanf(i8*, ...) #2

declare dso_local i32 @printf(i8*, ...) #2


!llvm.module.flags = !{!0}
!llvm.ident = !{!1}

!0 = !{i32 1, !"wchar_size", i32 4}
!1 = !{!"clang version 10.0.0-4ubuntu1 "}
